(lp1
(lp2
I7
aI0
aI0
aI0
aa(lp3
I2
aI1
aI0
aI0
aa(lp4
I11
aI1
aI0
aI0
aa(lp5
I5
aI0
aI0
aI0
aa(lp6
I7
aI0
aI0
aI0
aa(lp7
I4
aI0
aI0
aI0
aa(lp8
I5
aI0
aI0
aI0
aa(lp9
I9
aI3
aI0
aI0
aa(lp10
I11
aI1
aI0
aI0
aa(lp11
I5
aI1
aI0
aI0
aa(lp12
I5
aI0
aI0
aI0
aa(lp13
I5
aI0
aI0
aI0
aa(lp14
I2
aI0
aI0
aI0
aa(lp15
I1
aI0
aI0
aI0
aa(lp16
I4
aI0
aI0
aI0
aa(lp17
I2
aI0
aI0
aI0
aa(lp18
I1
aI0
aI0
aI0
aa(lp19
I3
aI0
aI0
aI2
aa(lp20
I19
aI0
aI0
aI0
aa(lp21
I15
aI2
aI0
aI0
aa(lp22
I9
aI0
aI0
aI0
aa(lp23
I5
aI0
aI0
aI0
aa(lp24
I2
aI0
aI0
aI0
aa(lp25
I5
aI2
aI0
aI0
aa(lp26
I3
aI0
aI0
aI0
aa(lp27
I5
aI0
aI0
aI0
aa.