(lp1
(lp2
I6
aI0
aI0
aI0
aa(lp3
I11
aI0
aI0
aI0
aa(lp4
I6
aI0
aI0
aI0
aa(lp5
I17
aI0
aI0
aI0
aa(lp6
I20
aI0
aI0
aI0
aa(lp7
I11
aI0
aI0
aI0
aa(lp8
I12
aI0
aI0
aI0
aa(lp9
I8
aI0
aI0
aI0
aa(lp10
I12
aI0
aI0
aI0
aa(lp11
I6
aI0
aI0
aI0
aa(lp12
I17
aI0
aI0
aI0
aa(lp13
I10
aI0
aI0
aI0
aa(lp14
I9
aI0
aI0
aI0
aa(lp15
I11
aI0
aI0
aI0
aa(lp16
I9
aI0
aI0
aI0
aa(lp17
I12
aI0
aI0
aI0
aa(lp18
I10
aI0
aI0
aI0
aa(lp19
I13
aI0
aI0
aI0
aa(lp20
I13
aI0
aI0
aI0
aa(lp21
I17
aI0
aI0
aI0
aa(lp22
I7
aI0
aI0
aI0
aa(lp23
I5
aI0
aI0
aI0
aa(lp24
I8
aI0
aI0
aI0
aa(lp25
I11
aI0
aI0
aI0
aa(lp26
I9
aI0
aI0
aI0
aa.