(lp1
(lp2
I-1
aI-1
aI-1
aI-1
aa(lp3
I-1
aI-1
aI-1
aI-1
aa(lp4
I-1
aI-1
aI-1
aI-1
aa(lp5
I-1
aI-1
aI-1
aI-1
aa(lp6
I21
aI0
aI0
aI8
aa(lp7
I-1
aI-1
aI-1
aI-1
aa(lp8
I9
aI0
aI0
aI0
aa(lp9
I-1
aI-1
aI-1
aI-1
aa(lp10
I-1
aI-1
aI-1
aI-1
aa(lp11
I-1
aI-1
aI-1
aI-1
aa(lp12
I-1
aI-1
aI-1
aI-1
aa(lp13
I6
aI0
aI0
aI0
aa(lp14
I-1
aI-1
aI-1
aI-1
aa(lp15
I-1
aI-1
aI-1
aI-1
aa(lp16
I-1
aI-1
aI-1
aI-1
aa(lp17
I-1
aI-1
aI-1
aI-1
aa(lp18
I-1
aI-1
aI-1
aI-1
aa(lp19
I-1
aI-1
aI-1
aI-1
aa(lp20
I-1
aI-1
aI-1
aI-1
aa(lp21
I-1
aI-1
aI-1
aI-1
aa(lp22
I-1
aI-1
aI-1
aI-1
aa(lp23
I-1
aI-1
aI-1
aI-1
aa(lp24
I5
aI0
aI0
aI0
aa(lp25
I7
aI0
aI0
aI0
aa(lp26
I-1
aI-1
aI-1
aI-1
aa.