(lp1
(lp2
I14
aI0
aI0
aI0
aa(lp3
I14
aI3
aI0
aI0
aa(lp4
I9
aI1
aI0
aI0
aa(lp5
I11
aI2
aI0
aI0
aa(lp6
I15
aI2
aI0
aI0
aa(lp7
I6
aI0
aI0
aI0
aa(lp8
I6
aI2
aI0
aI0
aa(lp9
I11
aI0
aI0
aI0
aa(lp10
I10
aI3
aI0
aI0
aa(lp11
I15
aI5
aI0
aI0
aa(lp12
I8
aI1
aI0
aI0
aa(lp13
I14
aI0
aI0
aI0
aa(lp14
I15
aI2
aI0
aI0
aa(lp15
I8
aI2
aI0
aI0
aa(lp16
I10
aI1
aI0
aI0
aa(lp17
I13
aI2
aI0
aI0
aa(lp18
I11
aI1
aI0
aI0
aa(lp19
I5
aI0
aI0
aI0
aa(lp20
I13
aI6
aI0
aI0
aa(lp21
I20
aI4
aI0
aI0
aa(lp22
I7
aI0
aI0
aI0
aa(lp23
I13
aI1
aI0
aI0
aa(lp24
I13
aI2
aI0
aI0
aa(lp25
I20
aI2
aI0
aI0
aa(lp26
I10
aI1
aI0
aI0
aa.