(lp1
(lp2
I10
aI0
aI0
aI0
aa(lp3
I8
aI0
aI0
aI0
aa(lp4
I4
aI0
aI0
aI0
aa(lp5
I6
aI1
aI0
aI0
aa(lp6
I9
aI0
aI0
aI0
aa(lp7
I6
aI2
aI0
aI0
aa(lp8
I5
aI0
aI0
aI0
aa(lp9
I6
aI1
aI0
aI0
aa(lp10
I10
aI0
aI0
aI0
aa(lp11
I6
aI1
aI0
aI0
aa(lp12
I5
aI0
aI0
aI0
aa(lp13
I3
aI1
aI0
aI0
aa(lp14
I14
aI1
aI0
aI0
aa(lp15
I13
aI4
aI0
aI0
aa(lp16
I14
aI5
aI0
aI0
aa(lp17
I10
aI0
aI0
aI0
aa(lp18
I13
aI3
aI0
aI0
aa(lp19
I6
aI0
aI0
aI0
aa(lp20
I13
aI1
aI0
aI0
aa(lp21
I5
aI1
aI0
aI0
aa(lp22
I6
aI3
aI0
aI0
aa(lp23
I6
aI0
aI0
aI0
aa(lp24
I7
aI0
aI0
aI0
aa(lp25
I12
aI1
aI0
aI0
aa(lp26
I8
aI0
aI0
aI0
aa.