(lp1
(lp2
I3
aI0
aI0
aI0
aa(lp3
I7
aI0
aI0
aI0
aa(lp4
I5
aI0
aI0
aI0
aa(lp5
I14
aI0
aI0
aI0
aa(lp6
I5
aI0
aI0
aI0
aa(lp7
I13
aI0
aI0
aI0
aa(lp8
I11
aI0
aI0
aI0
aa(lp9
I7
aI0
aI0
aI0
aa(lp10
I7
aI0
aI0
aI0
aa(lp11
I9
aI0
aI0
aI0
aa(lp12
I11
aI0
aI0
aI0
aa(lp13
I9
aI0
aI0
aI0
aa(lp14
I17
aI0
aI0
aI0
aa(lp15
I15
aI0
aI0
aI0
aa(lp16
I20
aI0
aI0
aI0
aa(lp17
I9
aI0
aI0
aI0
aa(lp18
I7
aI0
aI0
aI0
aa(lp19
I12
aI0
aI0
aI0
aa(lp20
I15
aI1
aI0
aI0
aa(lp21
I12
aI0
aI0
aI0
aa(lp22
I12
aI1
aI0
aI0
aa(lp23
I13
aI0
aI0
aI0
aa(lp24
I9
aI0
aI0
aI0
aa(lp25
I11
aI0
aI0
aI0
aa(lp26
I16
aI0
aI0
aI0
aa(lp27
I14
aI0
aI0
aI0
aa(lp28
I18
aI0
aI0
aI0
aa(lp29
I2
aI0
aI0
aI0
aa(lp30
I7
aI0
aI0
aI0
aa(lp31
I7
aI0
aI0
aI0
aa(lp32
I3
aI0
aI0
aI0
aa(lp33
I5
aI0
aI0
aI0
aa(lp34
I7
aI0
aI0
aI0
aa(lp35
I2
aI0
aI0
aI0
aa(lp36
I16
aI0
aI0
aI0
aa(lp37
I4
aI0
aI0
aI0
aa(lp38
I15
aI2
aI0
aI0
aa(lp39
I7
aI2
aI0
aI0
aa(lp40
I5
aI0
aI0
aI0
aa(lp41
I14
aI0
aI0
aI0
aa(lp42
I13
aI2
aI0
aI0
aa(lp43
I5
aI0
aI0
aI0
aa(lp44
I3
aI0
aI0
aI0
aa(lp45
I9
aI0
aI0
aI0
aa(lp46
I20
aI3
aI0
aI0
aa(lp47
I10
aI0
aI0
aI0
aa(lp48
I10
aI0
aI0
aI0
aa(lp49
I11
aI0
aI0
aI0
aa(lp50
I6
aI0
aI0
aI0
aa(lp51
I6
aI0
aI0
aI0
aa.