(lp1
(lp2
I0
aI0
aI0
aI0
aa(lp3
I0
aI0
aI0
aI0
aa(lp4
I9
aI0
aI0
aI0
aa(lp5
I8
aI0
aI0
aI0
aa(lp6
I6
aI0
aI0
aI0
aa(lp7
I9
aI1
aI0
aI0
aa(lp8
I0
aI0
aI0
aI0
aa(lp9
I0
aI0
aI0
aI0
aa(lp10
I0
aI0
aI0
aI0
aa(lp11
I12
aI5
aI0
aI0
aa(lp12
I12
aI0
aI0
aI0
aa(lp13
I9
aI2
aI0
aI0
aa(lp14
I6
aI1
aI0
aI0
aa(lp15
I13
aI5
aI0
aI0
aa(lp16
I0
aI0
aI0
aI0
aa(lp17
I0
aI0
aI0
aI0
aa(lp18
I15
aI2
aI0
aI0
aa(lp19
I15
aI5
aI0
aI0
aa(lp20
I0
aI0
aI0
aI0
aa(lp21
I13
aI5
aI0
aI0
aa(lp22
I0
aI0
aI0
aI0
aa(lp23
I0
aI0
aI0
aI0
aa(lp24
I9
aI0
aI0
aI0
aa(lp25
I0
aI0
aI0
aI0
aa(lp26
I8
aI2
aI0
aI0
aa(lp27
I0
aI0
aI0
aI0
aa(lp28
I4
aI1
aI0
aI0
aa(lp29
I0
aI0
aI0
aI0
aa(lp30
I10
aI3
aI0
aI0
aa(lp31
I0
aI0
aI0
aI0
aa(lp32
I15
aI2
aI0
aI0
aa(lp33
I0
aI0
aI0
aI0
aa(lp34
I0
aI0
aI0
aI0
aa(lp35
I20
aI11
aI0
aI0
aa(lp36
I0
aI0
aI0
aI0
aa(lp37
I8
aI0
aI0
aI0
aa(lp38
I0
aI0
aI0
aI0
aa(lp39
I9
aI4
aI0
aI0
aa(lp40
I0
aI0
aI0
aI0
aa(lp41
I13
aI4
aI0
aI0
aa(lp42
I0
aI0
aI0
aI0
aa(lp43
I10
aI1
aI0
aI0
aa(lp44
I0
aI0
aI0
aI0
aa(lp45
I11
aI0
aI0
aI0
aa(lp46
I0
aI0
aI0
aI0
aa(lp47
I14
aI8
aI0
aI0
aa(lp48
I20
aI2
aI0
aI0
aa.