(lp1
(lp2
I16
aI1
aI0
aI0
aa(lp3
I6
aI0
aI0
aI0
aa(lp4
I13
aI0
aI0
aI0
aa(lp5
I8
aI0
aI0
aI0
aa(lp6
I0
aI0
aI0
aI0
aa(lp7
I6
aI0
aI0
aI0
aa(lp8
I10
aI0
aI0
aI0
aa(lp9
I9
aI1
aI0
aI0
aa(lp10
I19
aI2
aI0
aI0
aa(lp11
I7
aI0
aI0
aI0
aa(lp12
I17
aI6
aI0
aI0
aa(lp13
I22
aI4
aI0
aI0
aa(lp14
I0
aI0
aI0
aI0
aa(lp15
I12
aI5
aI0
aI0
aa(lp16
I12
aI0
aI0
aI0
aa(lp17
I19
aI4
aI0
aI0
aa(lp18
I12
aI2
aI0
aI0
aa(lp19
I0
aI0
aI0
aI0
aa(lp20
I0
aI0
aI0
aI0
aa(lp21
I9
aI2
aI0
aI0
aa(lp22
I6
aI1
aI0
aI0
aa(lp23
I13
aI5
aI0
aI0
aa(lp24
I0
aI0
aI0
aI0
aa(lp25
I4
aI1
aI0
aI0
aa(lp26
I18
aI6
aI0
aI0
aa(lp27
I11
aI3
aI0
aI0
aa(lp28
I5
aI1
aI0
aI0
aa(lp29
I15
aI2
aI0
aI0
aa(lp30
I15
aI5
aI0
aI0
aa(lp31
I4
aI0
aI0
aI0
aa(lp32
I13
aI5
aI0
aI0
aa(lp33
I0
aI0
aI0
aI0
aa(lp34
I14
aI7
aI0
aI0
aa(lp35
I8
aI1
aI0
aI0
aa(lp36
I9
aI1
aI0
aI0
aa(lp37
I9
aI0
aI0
aI0
aa(lp38
I0
aI0
aI0
aI0
aa(lp39
I17
aI6
aI0
aI0
aa(lp40
I8
aI2
aI0
aI0
aa(lp41
I22
aI10
aI0
aI0
aa(lp42
I0
aI0
aI0
aI0
aa(lp43
I20
aI2
aI0
aI0
aa(lp44
I4
aI1
aI0
aI0
aa(lp45
I0
aI0
aI0
aI0
aa(lp46
I0
aI0
aI0
aI0
aa(lp47
I0
aI0
aI0
aI0
aa(lp48
I4
aI1
aI0
aI0
aa(lp49
I10
aI3
aI0
aI0
aa(lp50
I4
aI0
aI0
aI0
aa(lp51
I0
aI0
aI0
aI0
aa(lp52
I0
aI0
aI0
aI0
aa(lp53
I33
aI1
aI0
aI0
aa(lp54
I15
aI2
aI0
aI0
aa(lp55
I0
aI0
aI0
aI0
aa(lp56
I16
aI5
aI0
aI0
aa(lp57
I0
aI0
aI0
aI0
aa(lp58
I15
aI7
aI0
aI0
aa(lp59
I11
aI2
aI0
aI0
aa(lp60
I0
aI0
aI0
aI0
aa(lp61
I20
aI11
aI0
aI0
aa(lp62
I2
aI0
aI0
aI0
aa(lp63
I16
aI6
aI0
aI0
aa(lp64
I0
aI0
aI0
aI0
aa(lp65
I8
aI0
aI0
aI0
aa(lp66
I6
aI2
aI0
aI0
aa(lp67
I21
aI11
aI0
aI0
aa(lp68
I9
aI2
aI0
aI0
aa(lp69
I9
aI4
aI0
aI0
aa(lp70
I6
aI0
aI0
aI0
aa(lp71
I13
aI4
aI0
aI0
aa(lp72
I0
aI0
aI0
aI0
aa(lp73
I14
aI2
aI0
aI0
aa(lp74
I10
aI1
aI0
aI0
aa(lp75
I0
aI0
aI0
aI0
aa(lp76
I14
aI0
aI0
aI0
aa(lp77
I3
aI1
aI0
aI0
aa(lp78
I11
aI0
aI0
aI0
aa(lp79
I0
aI0
aI0
aI0
aa(lp80
I9
aI2
aI0
aI0
aa(lp81
I9
aI0
aI0
aI0
aa(lp82
I16
aI2
aI0
aI0
aa(lp83
I0
aI0
aI0
aI0
aa(lp84
I0
aI0
aI0
aI0
aa(lp85
I14
aI8
aI0
aI0
aa(lp86
I20
aI2
aI0
aI0
aa(lp87
I0
aI0
aI0
aI0
aa.