(lp1
(lp2
I6
aI1
aI0
aI0
aa(lp3
I0
aI0
aI0
aI0
aa(lp4
I0
aI0
aI0
aI0
aa(lp5
I0
aI0
aI0
aI0
aa(lp6
I0
aI0
aI0
aI0
aa(lp7
I3
aI1
aI0
aI0
aa(lp8
I5
aI0
aI0
aI0
aa(lp9
I7
aI2
aI0
aI0
aa(lp10
I8
aI2
aI0
aI0
aa(lp11
I22
aI4
aI0
aI0
aa(lp12
I5
aI1
aI0
aI0
aa(lp13
I32
aI20
aI0
aI0
aa(lp14
I0
aI0
aI0
aI0
aa(lp15
I0
aI0
aI0
aI0
aa(lp16
I0
aI0
aI0
aI0
aa(lp17
I8
aI0
aI0
aI0
aa(lp18
I7
aI2
aI0
aI0
aa(lp19
I8
aI0
aI0
aI0
aa(lp20
I11
aI1
aI0
aI0
aa(lp21
I0
aI0
aI0
aI0
aa(lp22
I12
aI1
aI0
aI0
aa(lp23
I0
aI0
aI0
aI0
aa(lp24
I0
aI0
aI0
aI0
aa(lp25
I0
aI0
aI0
aI0
aa(lp26
I0
aI0
aI0
aI0
aa(lp27
I10
aI1
aI0
aI0
aa.