(lp1
(lp2
I10
aI0
aI0
aI0
aa(lp3
I12
aI0
aI0
aI0
aa(lp4
I3
aI0
aI0
aI0
aa(lp5
I11
aI2
aI0
aI0
aa(lp6
I9
aI1
aI0
aI0
aa(lp7
I7
aI0
aI0
aI0
aa(lp8
I4
aI0
aI0
aI0
aa(lp9
I11
aI0
aI0
aI0
aa(lp10
I7
aI0
aI0
aI0
aa(lp11
I6
aI0
aI0
aI0
aa(lp12
I17
aI0
aI0
aI0
aa(lp13
I11
aI0
aI0
aI0
aa(lp14
I11
aI0
aI0
aI0
aa(lp15
I16
aI2
aI0
aI0
aa(lp16
I30
aI0
aI0
aI0
aa(lp17
I11
aI0
aI0
aI0
aa(lp18
I3
aI0
aI0
aI0
aa(lp19
I13
aI0
aI0
aI0
aa(lp20
I16
aI2
aI0
aI0
aa(lp21
I12
aI2
aI0
aI0
aa(lp22
I6
aI0
aI0
aI0
aa(lp23
I9
aI0
aI0
aI0
aa(lp24
I20
aI1
aI0
aI0
aa(lp25
I10
aI1
aI0
aI0
aa(lp26
I6
aI0
aI0
aI0
aa(lp27
I3
aI0
aI0
aI0
aa(lp28
I6
aI0
aI0
aI0
aa(lp29
I9
aI0
aI0
aI0
aa(lp30
I17
aI0
aI0
aI0
aa(lp31
I22
aI0
aI0
aI0
aa(lp32
I14
aI1
aI0
aI0
aa(lp33
I7
aI0
aI0
aI0
aa(lp34
I2
aI0
aI0
aI0
aa(lp35
I7
aI0
aI0
aI0
aa(lp36
I2
aI0
aI0
aI0
aa(lp37
I7
aI0
aI0
aI0
aa(lp38
I8
aI0
aI0
aI0
aa(lp39
I10
aI0
aI0
aI0
aa(lp40
I7
aI0
aI0
aI0
aa(lp41
I13
aI1
aI0
aI0
aa(lp42
I6
aI0
aI0
aI0
aa(lp43
I5
aI0
aI0
aI0
aa(lp44
I24
aI2
aI0
aI0
aa(lp45
I7
aI0
aI0
aI0
aa(lp46
I9
aI0
aI0
aI0
aa(lp47
I3
aI0
aI0
aI0
aa(lp48
I14
aI2
aI0
aI0
aa(lp49
I6
aI0
aI0
aI0
aa(lp50
I17
aI0
aI0
aI0
aa(lp51
I8
aI0
aI0
aI0
aa.